Certificate:
    Data:
        Version: 3 (0x2)
        Serial Number: 1 (0x1)
    Signature Algorithm: sha1WithRSAEncryption
        Issuer: DC=org, DC=simple, O=Simple Inc, OU=Simple Signing CA, CN=Simple Signing CA
        Validity
            Not Before: Nov 14 06:33:54 2022 GMT
            Not After : Nov 13 06:33:54 2024 GMT
        Subject: DC=org, DC=simple, O=Simple Inc, CN=www.simple.org
        Subject Public Key Info:
            Public Key Algorithm: rsaEncryption
                Public-Key: (2048 bit)
                Modulus:
                    00:c5:25:5d:43:d5:eb:2a:8d:dd:29:14:d2:29:83:
                    cc:b6:84:0b:4f:c7:0b:d0:8b:37:30:86:fe:5c:f8:
                    02:60:f5:ff:c7:a9:e1:e7:c9:05:77:55:d3:20:4a:
                    34:22:3d:e5:59:95:db:7d:93:7e:99:de:7e:72:69:
                    d8:69:2e:b0:4b:f2:1d:3e:3b:c9:65:fb:68:69:43:
                    85:5e:bd:2f:46:68:7c:8f:e6:0a:b5:cc:30:9b:46:
                    c6:72:8e:24:42:ac:9c:e6:bb:33:7c:1d:2b:0d:47:
                    ed:9a:82:04:16:1d:e6:53:bc:39:6b:a7:56:cb:4c:
                    96:74:b3:75:f1:8b:2a:05:b3:8b:07:ac:dd:33:4f:
                    3a:65:ea:ad:13:8a:58:2c:e0:95:6c:9a:7e:fc:65:
                    bd:d7:38:50:e7:e4:09:b2:46:ad:73:6e:e7:43:35:
                    45:b3:7d:0c:ec:67:1c:b6:8e:4d:03:2b:aa:30:3f:
                    05:9f:b2:ec:7f:5f:24:2f:76:8d:61:51:dc:3f:ad:
                    28:3a:38:17:6c:01:a7:73:86:8c:14:b2:4d:35:17:
                    c4:27:b0:89:1a:78:6e:d0:5c:82:8c:80:6c:92:d7:
                    01:bf:99:94:99:04:5f:53:d7:65:f7:d7:8b:d7:15:
                    43:ca:04:20:03:e2:e8:96:a4:13:31:c2:c4:de:01:
                    f4:6f
                Exponent: 65537 (0x10001)
        X509v3 extensions:
            X509v3 Key Usage: critical
                Digital Signature, Key Encipherment
            X509v3 Basic Constraints: 
                CA:FALSE
            X509v3 Extended Key Usage: 
                TLS Web Server Authentication, TLS Web Client Authentication
            X509v3 Subject Key Identifier: 
                0C:A4:91:2F:34:9F:03:22:F2:0D:DF:D5:6E:DD:1A:0E:96:94:B9:9C
            X509v3 Authority Key Identifier: 
                keyid:FB:38:57:F2:25:F1:3E:AD:2A:59:81:18:C4:60:6E:96:F9:E6:A6:C4

            X509v3 Subject Alternative Name: 
                DNS:yourdomain.tld
    Signature Algorithm: sha1WithRSAEncryption
         11:6b:35:64:c9:10:cb:45:ce:49:a6:fc:20:9a:84:82:89:aa:
         0c:ae:53:95:12:4c:48:ca:a7:04:ae:e1:8b:02:16:5c:21:24:
         90:42:f2:64:ef:1e:ad:f3:fc:60:ea:ae:2c:3f:f2:12:10:ec:
         02:0e:18:af:a9:4b:5b:42:24:7a:45:5a:83:c2:52:e4:22:00:
         89:f7:fb:fe:3e:0b:b4:96:41:0a:dc:2f:a0:f0:7c:b4:54:f0:
         ab:b4:f7:f5:4b:78:cf:c0:92:6d:73:9f:a8:a6:ef:67:37:ad:
         b0:19:3f:e8:04:93:41:e7:ad:6a:bd:98:65:31:ee:88:5a:8c:
         e4:9b:b8:32:6b:75:3b:c2:78:28:9e:94:37:51:5d:56:7d:59:
         bb:ef:fe:b3:2a:e4:cd:d0:56:f7:83:20:71:c9:ec:a3:8a:ea:
         51:08:c9:64:b0:9a:a1:8a:e2:51:a7:d6:aa:21:d9:56:c1:39:
         24:0e:aa:6b:bc:9f:a7:18:37:83:50:ca:72:61:03:9e:a1:c7:
         2e:e2:b8:11:d4:56:03:00:02:98:11:3d:5b:84:6d:d2:0b:bb:
         a1:4c:20:90:4b:8b:ac:65:40:f3:57:ee:5d:45:80:19:5d:1c:
         a9:af:1c:ec:34:c5:c4:32:57:49:28:50:aa:12:20:cd:98:79:
         e7:19:93:0d
-----BEGIN CERTIFICATE-----
MIID6TCCAtGgAwIBAgIBATANBgkqhkiG9w0BAQUFADB6MRMwEQYKCZImiZPyLGQB
GRYDb3JnMRYwFAYKCZImiZPyLGQBGRYGc2ltcGxlMRMwEQYDVQQKDApTaW1wbGUg
SW5jMRowGAYDVQQLDBFTaW1wbGUgU2lnbmluZyBDQTEaMBgGA1UEAwwRU2ltcGxl
IFNpZ25pbmcgQ0EwHhcNMjIxMTE0MDYzMzU0WhcNMjQxMTEzMDYzMzU0WjBbMRMw
EQYKCZImiZPyLGQBGRYDb3JnMRYwFAYKCZImiZPyLGQBGRYGc2ltcGxlMRMwEQYD
VQQKDApTaW1wbGUgSW5jMRcwFQYDVQQDDA53d3cuc2ltcGxlLm9yZzCCASIwDQYJ
KoZIhvcNAQEBBQADggEPADCCAQoCggEBAMUlXUPV6yqN3SkU0imDzLaEC0/HC9CL
NzCG/lz4AmD1/8ep4efJBXdV0yBKNCI95VmV232TfpnefnJp2GkusEvyHT47yWX7
aGlDhV69L0ZofI/mCrXMMJtGxnKOJEKsnOa7M3wdKw1H7ZqCBBYd5lO8OWunVstM
lnSzdfGLKgWziwes3TNPOmXqrROKWCzglWyafvxlvdc4UOfkCbJGrXNu50M1RbN9
DOxnHLaOTQMrqjA/BZ+y7H9fJC92jWFR3D+tKDo4F2wBp3OGjBSyTTUXxCewiRp4
btBcgoyAbJLXAb+ZlJkEX1PXZffXi9cVQ8oEIAPi6JakEzHCxN4B9G8CAwEAAaOB
mDCBlTAOBgNVHQ8BAf8EBAMCBaAwCQYDVR0TBAIwADAdBgNVHSUEFjAUBggrBgEF
BQcDAQYIKwYBBQUHAwIwHQYDVR0OBBYEFAykkS80nwMi8g3f1W7dGg6WlLmcMB8G
A1UdIwQYMBaAFPs4V/Il8T6tKlmBGMRgbpb55qbEMBkGA1UdEQQSMBCCDnlvdXJk
b21haW4udGxkMA0GCSqGSIb3DQEBBQUAA4IBAQARazVkyRDLRc5JpvwgmoSCiaoM
rlOVEkxIyqcEruGLAhZcISSQQvJk7x6t8/xg6q4sP/ISEOwCDhivqUtbQiR6RVqD
wlLkIgCJ9/v+Pgu0lkEK3C+g8Hy0VPCrtPf1S3jPwJJtc5+opu9nN62wGT/oBJNB
561qvZhlMe6IWozkm7gya3U7wngonpQ3UV1WfVm77/6zKuTN0Fb3gyBxyeyjiupR
CMlksJqhiuJRp9aqIdlWwTkkDqprvJ+nGDeDUMpyYQOeoccu4rgR1FYDAAKYET1b
hG3SC7uhTCCQS4usZUDzV+5dRYAZXRyprxzsNMXEMldJKFCqEiDNmHnnGZMN
-----END CERTIFICATE-----
