Certificate:
    Data:
        Version: 3 (0x2)
        Serial Number: 2 (0x2)
    Signature Algorithm: sha1WithRSAEncryption
        Issuer: DC=org, DC=simple, O=Simple Inc, OU=Simple Root CA, CN=Simple Root CA
        Validity
            Not Before: Nov 12 01:46:59 2022 GMT
            Not After : Nov 11 01:46:59 2032 GMT
        Subject: DC=org, DC=simple, O=Simple Inc, OU=Simple Signing CA, CN=Simple Signing CA
        Subject Public Key Info:
            Public Key Algorithm: rsaEncryption
                Public-Key: (2048 bit)
                Modulus:
                    00:f4:66:74:1d:9a:7d:5f:9c:ba:2f:0d:e9:e2:34:
                    7d:5c:a1:f4:01:b1:7d:63:b0:cb:ac:8b:a8:42:d3:
                    9d:0c:b9:8e:1a:2f:4a:92:ea:eb:c5:6c:49:4b:0d:
                    2e:09:2c:f6:a9:3f:1c:5d:49:1c:01:ee:06:5f:51:
                    d7:6b:1c:24:82:fc:0a:3e:f9:0e:82:f8:37:b5:48:
                    11:ec:a4:d6:da:f1:1d:6d:6f:ac:fa:07:32:d0:dc:
                    72:d8:b7:30:a3:53:83:de:b6:00:33:a0:0f:64:e1:
                    78:55:c1:0e:1b:1d:b1:bc:1f:57:ca:34:d2:cf:f5:
                    dd:33:96:3d:22:9c:b4:90:8d:08:7a:48:61:9a:79:
                    1d:7d:75:7e:dc:f1:42:76:d1:de:a7:d8:74:c3:40:
                    33:e4:8d:2e:a5:d2:0d:48:3e:e0:46:48:10:c1:83:
                    ce:b1:46:8e:a6:b5:76:8f:a8:87:25:9f:b5:c1:f2:
                    cd:46:cf:67:33:77:83:ce:26:a1:3f:37:f1:69:b3:
                    c8:7f:a0:b8:61:0b:40:d5:7e:fc:8e:95:45:3e:2c:
                    ed:56:1e:03:3f:8a:07:c8:fb:8a:56:19:fe:3e:46:
                    e0:0b:38:1d:68:6e:ae:83:69:9b:43:71:71:54:36:
                    bf:a4:cb:66:cd:29:ea:9d:66:94:a7:91:4f:0f:72:
                    1f:67
                Exponent: 65537 (0x10001)
        X509v3 extensions:
            X509v3 Key Usage: critical
                Certificate Sign, CRL Sign
            X509v3 Basic Constraints: critical
                CA:TRUE, pathlen:0
            X509v3 Subject Key Identifier: 
                FB:38:57:F2:25:F1:3E:AD:2A:59:81:18:C4:60:6E:96:F9:E6:A6:C4
            X509v3 Authority Key Identifier: 
                keyid:E6:6A:31:77:7B:18:93:38:9C:0C:D9:CE:8A:E9:C2:96:27:26:0C:1A

    Signature Algorithm: sha1WithRSAEncryption
         6c:a1:de:a2:f2:d7:31:33:95:c4:51:a7:09:c3:f6:e3:f9:82:
         b5:d8:2c:dc:96:1b:79:52:ac:f4:12:01:10:1a:f1:6f:fc:36:
         b4:b5:3e:e3:0d:6a:b1:b8:1e:42:88:60:db:c7:06:3d:23:24:
         05:a4:82:ce:19:ba:76:da:04:42:7d:4a:d8:c6:9e:27:35:33:
         16:a7:22:7c:a4:24:88:a7:ad:a4:bd:8a:54:be:28:77:c2:1c:
         f2:9d:0c:e5:7e:59:54:96:07:aa:4f:88:04:e9:3e:21:77:28:
         85:03:ba:d7:ac:c2:7d:d4:17:4b:7e:c6:1a:2a:1e:63:bb:bc:
         49:30:73:d5:4d:b5:46:6c:83:de:f7:18:db:88:2a:41:d9:cb:
         92:3a:b0:e1:6f:3a:58:65:17:24:a7:54:6c:0d:5e:af:e4:bd:
         83:0d:c7:2f:08:fb:58:fc:16:4e:7c:5e:2e:c1:90:54:2f:25:
         95:93:34:73:aa:cf:ad:c9:fa:6d:ac:7f:30:4e:d4:b9:3c:be:
         ee:78:80:1f:c1:5f:50:4f:2a:b0:e4:8b:c6:46:fc:1a:8b:94:
         6b:ff:00:9d:3c:41:75:53:ad:bf:ec:60:49:f8:9d:5c:e8:2a:
         6a:7b:c8:e4:2d:92:c1:b5:8d:44:d9:d8:83:a0:9a:ae:e7:c9:
         65:4b:4e:ac
-----BEGIN CERTIFICATE-----
MIIDzzCCAregAwIBAgIBAjANBgkqhkiG9w0BAQUFADB0MRMwEQYKCZImiZPyLGQB
GRYDb3JnMRYwFAYKCZImiZPyLGQBGRYGc2ltcGxlMRMwEQYDVQQKDApTaW1wbGUg
SW5jMRcwFQYDVQQLDA5TaW1wbGUgUm9vdCBDQTEXMBUGA1UEAwwOU2ltcGxlIFJv
b3QgQ0EwHhcNMjIxMTEyMDE0NjU5WhcNMzIxMTExMDE0NjU5WjB6MRMwEQYKCZIm
iZPyLGQBGRYDb3JnMRYwFAYKCZImiZPyLGQBGRYGc2ltcGxlMRMwEQYDVQQKDApT
aW1wbGUgSW5jMRowGAYDVQQLDBFTaW1wbGUgU2lnbmluZyBDQTEaMBgGA1UEAwwR
U2ltcGxlIFNpZ25pbmcgQ0EwggEiMA0GCSqGSIb3DQEBAQUAA4IBDwAwggEKAoIB
AQD0ZnQdmn1fnLovDeniNH1cofQBsX1jsMusi6hC050MuY4aL0qS6uvFbElLDS4J
LPapPxxdSRwB7gZfUddrHCSC/Ao++Q6C+De1SBHspNba8R1tb6z6BzLQ3HLYtzCj
U4PetgAzoA9k4XhVwQ4bHbG8H1fKNNLP9d0zlj0inLSQjQh6SGGaeR19dX7c8UJ2
0d6n2HTDQDPkjS6l0g1IPuBGSBDBg86xRo6mtXaPqIcln7XB8s1Gz2czd4POJqE/
N/Fps8h/oLhhC0DVfvyOlUU+LO1WHgM/igfI+4pWGf4+RuALOB1obq6DaZtDcXFU
Nr+ky2bNKeqdZpSnkU8Pch9nAgMBAAGjZjBkMA4GA1UdDwEB/wQEAwIBBjASBgNV
HRMBAf8ECDAGAQH/AgEAMB0GA1UdDgQWBBT7OFfyJfE+rSpZgRjEYG6W+eamxDAf
BgNVHSMEGDAWgBTmajF3exiTOJwM2c6K6cKWJyYMGjANBgkqhkiG9w0BAQUFAAOC
AQEAbKHeovLXMTOVxFGnCcP24/mCtdgs3JYbeVKs9BIBEBrxb/w2tLU+4w1qsbge
Qohg28cGPSMkBaSCzhm6dtoEQn1K2MaeJzUzFqcifKQkiKetpL2KVL4od8Ic8p0M
5X5ZVJYHqk+IBOk+IXcohQO616zCfdQXS37GGioeY7u8STBz1U21RmyD3vcY24gq
QdnLkjqw4W86WGUXJKdUbA1er+S9gw3HLwj7WPwWTnxeLsGQVC8llZM0c6rPrcn6
bax/ME7UuTy+7niAH8FfUE8qsOSLxkb8GouUa/8AnTxBdVOtv+xgSfidXOgqanvI
5C2SwbWNRNnYg6CarufJZUtOrA==
-----END CERTIFICATE-----
Certificate:
    Data:
        Version: 3 (0x2)
        Serial Number: 1 (0x1)
    Signature Algorithm: sha1WithRSAEncryption
        Issuer: DC=org, DC=simple, O=Simple Inc, OU=Simple Root CA, CN=Simple Root CA
        Validity
            Not Before: Nov 12 01:30:55 2022 GMT
            Not After : Nov 11 01:30:55 2032 GMT
        Subject: DC=org, DC=simple, O=Simple Inc, OU=Simple Root CA, CN=Simple Root CA
        Subject Public Key Info:
            Public Key Algorithm: rsaEncryption
                Public-Key: (2048 bit)
                Modulus:
                    00:a8:81:0a:c5:56:bc:d7:4d:89:34:33:8c:cb:5b:
                    89:ae:42:07:d1:dd:53:8b:8e:44:7d:af:84:48:a3:
                    70:cd:b5:9c:52:ce:f3:6d:db:bb:5e:d2:71:b9:bd:
                    7d:35:6f:9a:85:9d:4b:14:74:a4:13:e1:22:83:2c:
                    0f:8d:ec:6e:2d:c0:3f:b9:63:ea:a0:ca:33:65:1b:
                    6c:35:59:81:c7:ee:be:eb:c1:73:c5:c3:31:2b:e9:
                    e5:26:f7:f0:68:7b:db:24:19:0e:df:a1:d9:43:4d:
                    da:e7:21:4f:f1:a0:a1:b9:8b:47:40:1d:a4:55:43:
                    9b:1d:96:ae:94:61:30:9c:a5:ea:b2:0b:85:da:68:
                    d2:89:3d:a8:af:65:01:96:c2:3b:32:9a:c0:81:07:
                    4b:3d:a4:cf:76:15:b3:47:16:b9:83:6a:fb:fb:c3:
                    d7:f0:81:97:7c:b0:00:3d:19:c8:98:61:26:11:5b:
                    f2:9d:53:c7:2c:9a:35:26:c9:e3:85:4e:b0:c1:eb:
                    4d:6c:61:af:6d:1a:b8:1d:60:f9:35:90:25:31:57:
                    d7:6a:19:1f:a9:41:3c:96:d3:9b:ce:8f:90:06:cb:
                    49:0a:b3:28:78:f0:44:3e:0c:62:1b:2c:63:0c:9c:
                    51:b3:30:a5:b5:da:81:7d:4e:fe:50:ea:ee:ca:b7:
                    c9:45
                Exponent: 65537 (0x10001)
        X509v3 extensions:
            X509v3 Key Usage: critical
                Certificate Sign, CRL Sign
            X509v3 Basic Constraints: critical
                CA:TRUE
            X509v3 Subject Key Identifier: 
                E6:6A:31:77:7B:18:93:38:9C:0C:D9:CE:8A:E9:C2:96:27:26:0C:1A
            X509v3 Authority Key Identifier: 
                keyid:E6:6A:31:77:7B:18:93:38:9C:0C:D9:CE:8A:E9:C2:96:27:26:0C:1A

    Signature Algorithm: sha1WithRSAEncryption
         6a:2a:cc:7c:1c:2a:a5:b6:9f:c1:2c:96:96:c7:3e:59:73:0f:
         82:f3:6b:77:fb:dc:cd:fc:0e:10:39:57:2a:08:9d:de:bb:08:
         0e:ef:94:94:6c:01:68:86:83:49:5d:06:f0:78:7c:6f:6f:6e:
         87:9f:a6:7e:8e:1f:a3:46:f2:b0:8b:47:34:d1:ae:ac:23:f5:
         0b:2a:a2:c4:85:37:b3:bd:1e:78:06:dd:60:8b:69:7a:fc:2a:
         e2:60:60:ef:ca:6b:f6:75:0d:bf:5b:36:94:4e:e9:11:f0:b2:
         48:ea:9e:13:a0:85:0f:af:fb:db:18:b8:6e:e1:e9:88:1b:80:
         95:c7:eb:b9:9f:61:86:1b:52:97:78:86:07:49:2c:8c:ad:71:
         00:6b:43:09:f0:07:71:75:f2:de:e9:1a:c2:1b:63:db:d6:9d:
         b8:df:a7:ee:2e:45:ea:b6:c0:9e:1f:05:92:c9:dc:0b:6c:8b:
         c9:16:87:42:54:91:2a:94:db:03:0f:79:9d:e6:5f:b6:3f:85:
         86:08:6d:31:c1:5d:2b:73:0a:9d:f9:17:92:c9:58:28:f3:95:
         3c:4d:67:67:b1:1b:1c:d6:fc:ee:eb:25:57:d0:dc:b1:60:7c:
         cf:d6:d7:cc:bc:39:1e:00:35:8e:87:4d:1b:44:e5:df:70:fc:
         f5:52:d4:06
-----BEGIN CERTIFICATE-----
MIIDxjCCAq6gAwIBAgIBATANBgkqhkiG9w0BAQUFADB0MRMwEQYKCZImiZPyLGQB
GRYDb3JnMRYwFAYKCZImiZPyLGQBGRYGc2ltcGxlMRMwEQYDVQQKDApTaW1wbGUg
SW5jMRcwFQYDVQQLDA5TaW1wbGUgUm9vdCBDQTEXMBUGA1UEAwwOU2ltcGxlIFJv
b3QgQ0EwHhcNMjIxMTEyMDEzMDU1WhcNMzIxMTExMDEzMDU1WjB0MRMwEQYKCZIm
iZPyLGQBGRYDb3JnMRYwFAYKCZImiZPyLGQBGRYGc2ltcGxlMRMwEQYDVQQKDApT
aW1wbGUgSW5jMRcwFQYDVQQLDA5TaW1wbGUgUm9vdCBDQTEXMBUGA1UEAwwOU2lt
cGxlIFJvb3QgQ0EwggEiMA0GCSqGSIb3DQEBAQUAA4IBDwAwggEKAoIBAQCogQrF
VrzXTYk0M4zLW4muQgfR3VOLjkR9r4RIo3DNtZxSzvNt27te0nG5vX01b5qFnUsU
dKQT4SKDLA+N7G4twD+5Y+qgyjNlG2w1WYHH7r7rwXPFwzEr6eUm9/Boe9skGQ7f
odlDTdrnIU/xoKG5i0dAHaRVQ5sdlq6UYTCcpeqyC4XaaNKJPaivZQGWwjsymsCB
B0s9pM92FbNHFrmDavv7w9fwgZd8sAA9GciYYSYRW/KdU8csmjUmyeOFTrDB601s
Ya9tGrgdYPk1kCUxV9dqGR+pQTyW05vOj5AGy0kKsyh48EQ+DGIbLGMMnFGzMKW1
2oF9Tv5Q6u7Kt8lFAgMBAAGjYzBhMA4GA1UdDwEB/wQEAwIBBjAPBgNVHRMBAf8E
BTADAQH/MB0GA1UdDgQWBBTmajF3exiTOJwM2c6K6cKWJyYMGjAfBgNVHSMEGDAW
gBTmajF3exiTOJwM2c6K6cKWJyYMGjANBgkqhkiG9w0BAQUFAAOCAQEAairMfBwq
pbafwSyWlsc+WXMPgvNrd/vczfwOEDlXKgid3rsIDu+UlGwBaIaDSV0G8Hh8b29u
h5+mfo4fo0bysItHNNGurCP1CyqixIU3s70eeAbdYItpevwq4mBg78pr9nUNv1s2
lE7pEfCySOqeE6CFD6/72xi4buHpiBuAlcfruZ9hhhtSl3iGB0ksjK1xAGtDCfAH
cXXy3ukawhtj29aduN+n7i5F6rbAnh8FksncC2yLyRaHQlSRKpTbAw95neZftj+F
hghtMcFdK3MKnfkXkslYKPOVPE1nZ7EbHNb87uslV9DcsWB8z9bXzLw5HgA1jodN
G0Tl33D89VLUBg==
-----END CERTIFICATE-----
